target datalayout = "e-m:e-p270:32:32-p271:32:32-p272:64:64-i64:64-i128:128-f80:128-n8:16:32:64-S128"
target triple = "x86_64-pc-linux-gnu"

%"class.icu_77::Normalizer" = type <{ %"class.icu_77::UObject", ptr, ptr, i32, i32, ptr, i32, i32, %"class.icu_77::UnicodeString", i32, [4 x i8] }>
%"class.icu_77::UObject" = type { ptr }
%"class.icu_77::UnicodeString" = type { %"class.icu_77::Replaceable", %"union.icu_77::UnicodeString::StackBufferOrFields" }
%"class.icu_77::Replaceable" = type { %"class.icu_77::UObject" }
%"union.icu_77::UnicodeString::StackBufferOrFields" = type { %struct.anon.0, [32 x i8] }
%struct.anon.0 = type { i16, i32, i32, ptr }

; Function Attrs: inlinehint mustprogress nounwind uwtable
define linkonce_odr noundef i32 @_ZNK6icu_7713UnicodeString14getShortLengthEv(ptr noundef nonnull align 8 dereferenceable(64) %0) #3 comdat align 2 {
  %2 = alloca ptr, align 8
  store ptr %0, ptr %2, align 8, !tbaa !8
  %3 = load ptr, ptr %2, align 8
  %4 = getelementptr inbounds nuw %"class.icu_77::UnicodeString", ptr %3, i32 0, i32 1
  %5 = getelementptr inbounds nuw %struct.anon.0, ptr %4, i32 0, i32 0
  %6 = load i16, ptr %5, align 8, !tbaa !32
  %7 = sext i16 %6 to i32
  %8 = ashr i32 %7, 5
  ret i32 %8
}

; Function Attrs: inlinehint mustprogress nounwind uwtable
define linkonce_odr noundef signext i8 @_ZNK6icu_7713UnicodeString14hasShortLengthEv(ptr noundef nonnull align 8 dereferenceable(64) %0) #3 comdat align 2 {
  %2 = alloca ptr, align 8
  store ptr %0, ptr %2, align 8, !tbaa !8
  %3 = load ptr, ptr %2, align 8
  %4 = getelementptr inbounds nuw %"class.icu_77::UnicodeString", ptr %3, i32 0, i32 1
  %5 = getelementptr inbounds nuw %struct.anon.0, ptr %4, i32 0, i32 0
  %6 = load i16, ptr %5, align 8, !tbaa !32
  %7 = sext i16 %6 to i32
  %8 = icmp sge i32 %7, 0
  %9 = zext i1 %8 to i8
  ret i8 %9
}

; Function Attrs: inlinehint mustprogress uwtable
define linkonce_odr noundef i32 @_ZNK6icu_7713UnicodeString6lengthEv(ptr noundef nonnull align 8 dereferenceable(64) %0) #6 comdat align 2 {
  %2 = alloca ptr, align 8
  store ptr %0, ptr %2, align 8, !tbaa !8
  %3 = load ptr, ptr %2, align 8
  %4 = call noundef signext i8 @_ZNK6icu_7713UnicodeString14hasShortLengthEv(ptr noundef nonnull align 8 dereferenceable(64) %3)
  %5 = icmp ne i8 %4, 0
  br i1 %5, label %6, label %8

6:                                                ; preds = %1
  %7 = call noundef i32 @_ZNK6icu_7713UnicodeString14getShortLengthEv(ptr noundef nonnull align 8 dereferenceable(64) %3)
  br label %12

8:                                                ; preds = %1
  %9 = getelementptr inbounds nuw %"class.icu_77::UnicodeString", ptr %3, i32 0, i32 1
  %10 = getelementptr inbounds nuw %struct.anon.0, ptr %9, i32 0, i32 1
  %11 = load i32, ptr %10, align 4, !tbaa !32
  br label %12

12:                                               ; preds = %8, %6
  %13 = phi i32 [ %7, %6 ], [ %11, %8 ]
  ret i32 %13
}

; Function Attrs: mustprogress uwtable
define noundef i32 @_ZN6icu_7710Normalizer4nextEv(ptr noundef nonnull align 8 dereferenceable(116) %0) #1 align 2 {
  %2 = alloca i32, align 4
  %3 = alloca ptr, align 8
  %4 = alloca i32, align 4
  store ptr %0, ptr %3, align 8, !tbaa !3
  %5 = load ptr, ptr %3, align 8
  %6 = getelementptr inbounds nuw %"class.icu_77::Normalizer", ptr %5, i32 0, i32 9
  %7 = load i32, ptr %6, align 8, !tbaa !29
  %8 = getelementptr inbounds nuw %"class.icu_77::Normalizer", ptr %5, i32 0, i32 8
  %9 = call noundef i32 @_ZNK6icu_7713UnicodeString6lengthEv(ptr noundef nonnull align 8 dereferenceable(64) %8)
  %10 = icmp slt i32 %7, %9
  br i1 %10, label %14, label %11

11:                                               ; preds = %1
  %12 = call noundef signext i8 @_ZN6icu_7710Normalizer13nextNormalizeEv(ptr noundef nonnull align 8 dereferenceable(116) %5)
  %13 = icmp ne i8 %12, 0
  br i1 %13, label %14, label %26

14:                                               ; preds = %11, %1
  call void @llvm.lifetime.start.p0(i64 4, ptr %4) #9
  %15 = getelementptr inbounds nuw %"class.icu_77::Normalizer", ptr %5, i32 0, i32 8
  %16 = getelementptr inbounds nuw %"class.icu_77::Normalizer", ptr %5, i32 0, i32 9
  %17 = load i32, ptr %16, align 8, !tbaa !29
  %18 = call noundef i32 @_ZNK6icu_7713UnicodeString8char32AtEi(ptr noundef nonnull align 8 dereferenceable(64) %15, i32 noundef %17)
  store i32 %18, ptr %4, align 4, !tbaa !37
  %19 = load i32, ptr %4, align 4, !tbaa !37
  %20 = icmp ule i32 %19, 65535
  %21 = select i1 %20, i32 1, i32 2
  %22 = getelementptr inbounds nuw %"class.icu_77::Normalizer", ptr %5, i32 0, i32 9
  %23 = load i32, ptr %22, align 8, !tbaa !29
  %24 = add nsw i32 %23, %21
  store i32 %24, ptr %22, align 8, !tbaa !29
  %25 = load i32, ptr %4, align 4, !tbaa !37
  store i32 %25, ptr %2, align 4
  call void @llvm.lifetime.end.p0(i64 4, ptr %4) #9
  br label %27

26:                                               ; preds = %11
  store i32 65535, ptr %2, align 4
  br label %27

27:                                               ; preds = %26, %14
  %28 = load i32, ptr %2, align 4
  ret i32 %28
}