; Function Attrs: mustprogress uwtable
define noundef i32 @_ZN6icu_7710Normalizer4nextEv(ptr noundef nonnull align 8 dereferenceable(116) %0) local_unnamed_addr #1 align 2 {
  %2 = getelementptr inbounds nuw i8, ptr %0, i64 112
  %3 = load i32, ptr %2, align 8, !tbaa !23
  %4 = getelementptr inbounds nuw i8, ptr %0, i64 48
  %5 = getelementptr inbounds nuw i8, ptr %0, i64 56
  %6 = load i16, ptr %5, align 8, !tbaa !22
  %7 = icmp slt i16 %6, 0
  %8 = ashr i16 %6, 5
  %9 = sext i16 %8 to i32
  %10 = getelementptr inbounds nuw i8, ptr %0, i64 60
  %11 = load i32, ptr %10, align 4
  %12 = select i1 %7, i32 %11, i32 %9
  %13 = icmp slt i32 %3, %12
  br i1 %13, label %16, label %14

14:                                               ; preds = %1
  %15 = tail call noundef signext i8 @_ZN6icu_7710Normalizer13nextNormalizeEv(ptr noundef nonnull align 8 dereferenceable(116) %0)
  %.not = icmp eq i8 %15, 0
  br i1 %.not, label %23, label %._crit_edge

._crit_edge:                                      ; preds = %14
  %.pre = load i32, ptr %2, align 8, !tbaa !23
  br label %16

16:                                               ; preds = %._crit_edge, %1
  %17 = phi i32 [ %.pre, %._crit_edge ], [ %3, %1 ]
  %18 = tail call noundef i32 @_ZNK6icu_7713UnicodeString8char32AtEi(ptr noundef nonnull align 8 dereferenceable(64) %4, i32 noundef %17)
  %19 = icmp ult i32 %18, 65536
  %20 = select i1 %19, i32 1, i32 2
  %21 = load i32, ptr %2, align 8, !tbaa !23
  %22 = add nsw i32 %20, %21
  store i32 %22, ptr %2, align 8, !tbaa !23
  br label %23

23:                                               ; preds = %14, %16
  %.0 = phi i32 [ %18, %16 ], [ 65535, %14 ]
  ret i32 %.0
}